
md5-internal.o:     file format elf32-xtensa-le


Disassembly of section .irom0.text:

00000000 <md5_vector>:
   0:	90c112        	addi	a1, a1, -112
   3:	166132        	s32i	a3, a1, 88
   6:	176102        	s32i	a0, a1, 92
   9:	1961d2        	s32i	a13, a1, 100
   c:	1861c2        	s32i	a12, a1, 96
   f:	1a61e2        	s32i	a14, a1, 104
  12:	04cd      	mov.n	a12, a4
  14:	02ed      	mov.n	a14, a2
  16:	05dd      	mov.n	a13, a5
  18:	012d      	mov.n	a2, a1
  1a:	000005        	call0	1c <md5_vector+0x1c>
  1d:	1b61d2        	s32i	a13, a1, 108
  20:	4e9c      	beqz.n	a14, 38 <md5_vector+0x38>
  22:	1621d2        	l32i	a13, a1, 88
  25:	a0eed0        	addx4	a14, a14, a13
  28:	012d      	mov.n	a2, a1
  2a:	0d38      	l32i.n	a3, a13, 0
  2c:	0c48      	l32i.n	a4, a12, 0
  2e:	000005        	call0	30 <md5_vector+0x30>
  31:	cc4b      	addi.n	a12, a12, 4
  33:	dd4b      	addi.n	a13, a13, 4
  35:	ef9de7        	bne	a13, a14, 28 <md5_vector+0x28>
  38:	1b2122        	l32i	a2, a1, 108
  3b:	013d      	mov.n	a3, a1
  3d:	000005        	call0	40 <md5_vector+0x40>
  40:	020c      	movi.n	a2, 0
  42:	1821c2        	l32i	a12, a1, 96
  45:	1921d2        	l32i	a13, a1, 100
  48:	1a21e2        	l32i	a14, a1, 104
  4b:	172102        	l32i	a0, a1, 92
  4e:	70c112        	addi	a1, a1, 112
  51:	f00d      	ret.n
  53:	230100        	excw
  56:	896745        	call0	fff896cc <MD5Final+0xfff89564>
  59:	cdab      	addi.n	a12, a13, 10
  5b:	ef          	.byte 0xef
  5c:	fe          	.byte 0xfe
  5d:	badc      	bnez.n	a10, 7c <MD5Init+0x18>
  5f:	7698      	l32i.n	a9, a6, 28
  61:	103254        	excw

00000064 <MD5Init>:
  64:	ffff31        	l32r	a3, 60 <md5_vector+0x60>
  67:	fffd41        	l32r	a4, 5c <md5_vector+0x5c>
  6a:	fffb51        	l32r	a5, 58 <md5_vector+0x58>
  6d:	fff961        	l32r	a6, 54 <md5_vector+0x54>
  70:	070c      	movi.n	a7, 0
  72:	4279      	s32i.n	a7, a2, 16
  74:	5279      	s32i.n	a7, a2, 20
  76:	0269      	s32i.n	a6, a2, 0
  78:	1259      	s32i.n	a5, a2, 4
  7a:	2249      	s32i.n	a4, a2, 8
  7c:	3239      	s32i.n	a3, a2, 12
  7e:	f00d      	ret.n
	...
  88:	02f8      	l32i.n	a15, a2, 0
	...

00000094 <MD5Update>:
  94:	d0c112        	addi	a1, a1, -48
  97:	61e9      	s32i.n	a14, a1, 24
  99:	3109      	s32i.n	a0, a1, 12
  9b:	8129      	s32i.n	a2, a1, 32
  9d:	41c9      	s32i.n	a12, a1, 16
  9f:	51d9      	s32i.n	a13, a1, 20
  a1:	71f9      	s32i.n	a15, a1, 28
  a3:	04dd      	mov.n	a13, a4
  a5:	02fd      	mov.n	a15, a2
  a7:	03cd      	mov.n	a12, a3
  a9:	4228      	l32i.n	a2, a2, 16
  ab:	5f08      	l32i.n	a0, a15, 20
  ad:	547320        	extui	a7, a2, 3, 6
  b0:	b03420        	addx8	a3, a4, a2
  b3:	4f39      	s32i.n	a3, a15, 16
  b5:	254dd0        	extui	a4, a13, 29, 3
  b8:	03b327        	bgeu	a3, a2, bf <MD5Update+0x2b>
  bb:	001b      	addi.n	a0, a0, 1
  bd:	5f09      	s32i.n	a0, a15, 20
  bf:	404a      	add.n	a4, a0, a4
  c1:	5f49      	s32i.n	a4, a15, 20
  c3:	f7bc      	beqz.n	a7, 106 <MD5Update+0x72>
  c5:	044c      	movi.n	a4, 64
  c7:	27fa      	add.n	a2, a7, a15
  c9:	18c222        	addi	a2, a2, 24
  cc:	c04470        	sub	a4, a4, a7
  cf:	0cbd47        	bgeu	a13, a4, df <MD5Update+0x4b>
  d2:	0d4d      	mov.n	a4, a13
  d4:	0c3d      	mov.n	a3, a12
  d6:	ffea01        	l32r	a0, 80 <MD5Init+0x1c>
  d9:	0000c0        	callx0	a0
  dc:	001946        	j	145 <MD5Update+0xb1>
  df:	0c3d      	mov.n	a3, a12
  e1:	2179      	s32i.n	a7, a1, 8
  e3:	ffe801        	l32r	a0, 84 <MD5Init+0x20>
  e6:	0000c0        	callx0	a0
  e9:	0f2d      	mov.n	a2, a15
  eb:	18cfe2        	addi	a14, a15, 24
  ee:	0e3d      	mov.n	a3, a14
  f0:	ffe601        	l32r	a0, 88 <MD5Init+0x24>
  f3:	0000c0        	callx0	a0
  f6:	2108      	l32i.n	a0, a1, 8
  f8:	d0da      	add.n	a13, a0, a13
  fa:	c0cc00        	sub	a12, a12, a0
  fd:	40ccc2        	addi	a12, a12, 64
 100:	c0cdd2        	addi	a13, a13, -64
 103:	000086        	j	109 <MD5Update+0x75>
 106:	18cfe2        	addi	a14, a15, 24
 109:	2cddb6        	bltui	a13, 64, 139 <MD5Update+0xa5>
 10c:	01d9      	s32i.n	a13, a1, 0
 10e:	4126d0        	srli	a2, a13, 6
 111:	1129      	s32i.n	a2, a1, 4
 113:	0e2d      	mov.n	a2, a14
 115:	0c3d      	mov.n	a3, a12
 117:	044c      	movi.n	a4, 64
 119:	ffdc01        	l32r	a0, 8c <MD5Init+0x28>
 11c:	0000c0        	callx0	a0
 11f:	0f2d      	mov.n	a2, a15
 121:	0e3d      	mov.n	a3, a14
 123:	001d45        	call0	2f8 <MD5Final+0x190>
 126:	40ccc2        	addi	a12, a12, 64
 129:	c0cdd2        	addi	a13, a13, -64
 12c:	e3ddf6        	bgeui	a13, 64, 113 <MD5Update+0x7f>
 12f:	11f8      	l32i.n	a15, a1, 4
 131:	01d8      	l32i.n	a13, a1, 0
 133:	11ffa0        	slli	a15, a15, 6
 136:	c0ddf0        	sub	a13, a13, a15
 139:	0d4d      	mov.n	a4, a13
 13b:	0c3d      	mov.n	a3, a12
 13d:	0e2d      	mov.n	a2, a14
 13f:	ffd401        	l32r	a0, 90 <MD5Init+0x2c>
 142:	0000c0        	callx0	a0
 145:	41c8      	l32i.n	a12, a1, 16
 147:	51d8      	l32i.n	a13, a1, 20
 149:	61e8      	l32i.n	a14, a1, 24
 14b:	71f8      	l32i.n	a15, a1, 28
 14d:	3108      	l32i.n	a0, a1, 12
 14f:	30c112        	addi	a1, a1, 48
 152:	f00d      	ret.n
 154:	000000        	ill
 157:	02f800        	excw
	...

00000168 <MD5Final>:
 168:	f43c      	movi.n	a4, 63
 16a:	f0c112        	addi	a1, a1, -16
 16d:	0129      	s32i.n	a2, a1, 0
 16f:	1109      	s32i.n	a0, a1, 4
 171:	31d9      	s32i.n	a13, a1, 12
 173:	21c9      	s32i.n	a12, a1, 8
 175:	18c3d2        	addi	a13, a3, 24
 178:	03cd      	mov.n	a12, a3
 17a:	4c08      	l32i.n	a0, a12, 16
 17c:	80af32        	movi	a3, -128
 17f:	540300        	extui	a0, a0, 3, 6
 182:	2c0a      	add.n	a2, a12, a0
 184:	c04400        	sub	a4, a4, a0
 187:	184232        	s8i	a3, a2, 24
 18a:	19c222        	addi	a2, a2, 25
 18d:	2084f6        	bgeui	a4, 8, 1b1 <MD5Final+0x49>
 190:	030c      	movi.n	a3, 0
 192:	fff001        	l32r	a0, 154 <MD5Update+0xc0>
 195:	0000c0        	callx0	a0
 198:	0c2d      	mov.n	a2, a12
 19a:	0d3d      	mov.n	a3, a13
 19c:	ffef01        	l32r	a0, 158 <MD5Update+0xc4>
 19f:	0000c0        	callx0	a0
 1a2:	0d2d      	mov.n	a2, a13
 1a4:	030c      	movi.n	a3, 0
 1a6:	843c      	movi.n	a4, 56
 1a8:	ffed01        	l32r	a0, 15c <MD5Update+0xc8>
 1ab:	0000c0        	callx0	a0
 1ae:	000306        	j	1be <MD5Final+0x56>
 1b1:	030c      	movi.n	a3, 0
 1b3:	743c      	movi.n	a4, 55
 1b5:	c04400        	sub	a4, a4, a0
 1b8:	ffea01        	l32r	a0, 160 <MD5Update+0xcc>
 1bb:	0000c0        	callx0	a0
 1be:	0d3d      	mov.n	a3, a13
 1c0:	0c2d      	mov.n	a2, a12
 1c2:	5c58      	l32i.n	a5, a12, 20
 1c4:	4c68      	l32i.n	a6, a12, 16
 1c6:	146c62        	s32i	a6, a12, 80
 1c9:	156c52        	s32i	a5, a12, 84
 1cc:	001285        	call0	2f8 <MD5Final+0x190>
 1cf:	0128      	l32i.n	a2, a1, 0
 1d1:	0c3d      	mov.n	a3, a12
 1d3:	041c      	movi.n	a4, 16
 1d5:	ffe301        	l32r	a0, 164 <MD5Update+0xd0>
 1d8:	0000c0        	callx0	a0
 1db:	030c      	movi.n	a3, 0
 1dd:	020c      	movi.n	a2, 0
 1df:	100c      	movi.n	a0, 1
 1e1:	31d8      	l32i.n	a13, a1, 12
 1e3:	000b      	addi.n	a0, a0, -1
 1e5:	72ca      	add.n	a7, a2, a12
 1e7:	0739      	s32i.n	a3, a7, 0
 1e9:	224b      	addi.n	a2, a2, 4
 1eb:	f410e6        	bgei	a0, 1, 1e3 <MD5Final+0x7b>
 1ee:	21c8      	l32i.n	a12, a1, 8
 1f0:	1108      	l32i.n	a0, a1, 4
 1f2:	10c112        	addi	a1, a1, 16
 1f5:	f00d      	ret.n
 1f7:	a47800        	extui	a7, a0, 8, 11
 1fa:	d76a      	add.n	a13, a7, a6
 1fc:	c7b756        	bnez	a7, fffffe7b <MD5Final+0xfffffd13>
 1ff:	dbe8      	l32i.n	a14, a11, 52
 201:	242070        	extui	a2, a7, 0, 3
 204:	ee          	.byte 0xee
 205:	ce          	.byte 0xce
 206:	c1bd      	excw
 208:	af          	.byte 0xaf
 209:	0f          	.byte 0xf
 20a:	f57c      	movi.n	a5, -1
 20c:	c62a      	add.n	a12, a6, a2
 20e:	134787        	ball	a7, a8, 225 <MD5Final+0xbd>
 211:	a83046        	j	fffea2d6 <MD5Final+0xfffea16e>
 214:	469501        	l32r	a0, fffd1c68 <MD5Final+0xfffd1b00>
 217:	d8fd      	excw
 219:	8098      	l32i.n	a9, a0, 32
 21b:	af69      	s32i.n	a6, a15, 40
 21d:	8b44f7        	ball	a4, a15, 1ac <MD5Final+0x44>
 220:	ff5bb1        	l32r	a11, ffffff8c <MD5Final+0xfffffe24>
 223:	ff          	.byte 0xff
 224:	be          	.byte 0xbe
 225:	895cd7        	bbc	a12, a13, 1b2 <MD5Final+0x4a>
 228:	901122        	l16ui	a2, a1, 0x120
 22b:	936b      	addi.n	a9, a3, 6
 22d:	fd9871        	l32r	a7, fffff890 <MD5Final+0xfffff728>
 230:	8e          	.byte 0x8e
 231:	a67943        	excw
 234:	b40821        	l32r	a2, fffed254 <MD5Final+0xfffed0ec>
 237:	6249      	s32i.n	a4, a2, 24
 239:	f61e25        	excw
 23c:	40b340        	excw
 23f:	5a51c0        	excw
 242:	5e          	.byte 0x5e
 243:	c7aa26        	beqi	a10, 12, 20e <MD5Final+0xa6>
 246:	5de9b6        	bltui	a9, 128, 2a7 <MD5Final+0x13f>
 249:	d62f10        	excw
 24c:	441453        	excw
 24f:	e68102        	excw
 252:	c8d8a1        	l32r	a10, ffff25b4 <MD5Final+0xffff244c>
 255:	d3fb      	addi.n	a13, a3, 15
 257:	cde6e7        	bbsi	a6, 14, 228 <MD5Final+0xc0>
 25a:	d621e1        	l32r	a14, ffff5ae0 <MD5Final+0xffff5978>
 25d:	c33707        	bltu	a7, a0, 224 <MD5Final+0xbc>
 260:	d50d87        	bnone	a13, a8, 239 <MD5Final+0xd1>
 263:	14edf4        	excw
 266:	455a      	add.n	a4, a5, a5
 268:	e3e905        	call0	fffe40fc <MD5Final+0xfffe3f94>
 26b:	f8a9      	s32i.n	a10, a8, 60
 26d:	fcefa3        	excw
 270:	02d9      	s32i.n	a13, a2, 0
 272:	6f          	.byte 0x6f
 273:	4c8a67        	bany	a10, a6, 2c3 <MD5Final+0x15b>
 276:	8d2a      	add.n	a8, a13, a2
 278:	fa3942        	excw
 27b:	ff          	.byte 0xff
 27c:	71f681        	l32r	a8, fffdca54 <MD5Final+0xfffdc8ec>
 27f:	612287        	blt	a2, a8, 2e4 <MD5Final+0x17c>
 282:	6d9d      	excw
 284:	380c      	movi.n	a8, 3
 286:	44fde5        	excw
 289:	beea      	add.n	a11, a14, a14
 28b:	cfa9a4        	excw
 28e:	de          	.byte 0xde
 28f:	604b      	addi.n	a6, a0, 4
 291:	bb4b      	addi.n	a11, a11, 4
 293:	bc70f6        	bgeui	a0, 7, 253 <MD5Final+0xeb>
 296:	bf          	.byte 0xbf
 297:	be          	.byte 0xbe
 298:	9b7ec6        	j	fffe7097 <MD5Final+0xfffe6f2f>
 29b:	fa28      	l32i.n	a2, a10, 60
 29d:	eaa127        	bge	a1, a2, 28b <MD5Final+0x123>
 2a0:	ef3085        	call0	fffef5ac <MD5Final+0xfffef444>
 2a3:	1d05d4        	excw
 2a6:	0488      	l32i.n	a8, a4, 0
 2a8:	d039      	s32i.n	a3, a0, 52
 2aa:	e5d9d4        	excw
 2ad:	db99      	s32i.n	a9, a11, 52
 2af:	7cf8e6        	bgei	a8, 0x100, 32f <MD5Final+0x1c7>
 2b2:	651fa2        	l16ui	a10, a15, 202
 2b5:	c4ac56        	bnez	a12, ffffff03 <MD5Final+0xfffffd9b>
 2b8:	292244        	excw
 2bb:	ff97f4        	excw
 2be:	432a      	add.n	a4, a3, a2
 2c0:	9423a7        	blt	a3, a10, 258 <MD5Final+0xf0>
 2c3:	39ab      	addi.n	a3, a9, 10
 2c5:	fc93a0        	excw
 2c8:	5b59c3        	excw
 2cb:	cc9265        	excw
 2ce:	8f0c      	movi.n	a15, 8
 2d0:	f47d      	excw
 2d2:	ef          	.byte 0xef
 2d3:	ff          	.byte 0xff
 2d4:	845dd1        	l32r	a13, fffe1448 <MD5Final+0xfffe12e0>
 2d7:	7e4f85        	call0	7e7d0 <MD5Final+0x7e668>
 2da:	6fa8      	l32i.n	a10, a15, 24
 2dc:	2ce6e0        	excw
 2df:	fe          	.byte 0xfe
 2e0:	014314        	excw
 2e3:	11a1a3        	excw
 2e6:	4e08      	l32i.n	a0, a14, 16
 2e8:	537e82        	excw
 2eb:	f235f7        	bltu	a5, a15, 2e1 <MD5Final+0x179>
 2ee:	bd3a      	add.n	a11, a13, a3
 2f0:	d2bb      	addi.n	a13, a2, 11
 2f2:	912ad7        	blt	a10, a13, 287 <MD5Final+0x11f>
 2f5:	eb86d3        	excw
 2f8:	e0c112        	addi	a1, a1, -32
 2fb:	404910        	ssai	25
 2fe:	7368      	l32i.n	a6, a3, 28
 300:	5348      	l32i.n	a4, a3, 20
 302:	23a8      	l32i.n	a10, a3, 8
 304:	0378      	l32i.n	a7, a3, 0
 306:	1298      	l32i.n	a9, a2, 4
 308:	0109      	s32i.n	a0, a1, 0
 30a:	2288      	l32i.n	a8, a2, 8
 30c:	31e9      	s32i.n	a14, a1, 12
 30e:	11c9      	s32i.n	a12, a1, 4
 310:	21d9      	s32i.n	a13, a1, 8
 312:	41f9      	s32i.n	a15, a1, 16
 314:	13d8      	l32i.n	a13, a3, 4
 316:	ffb8f1        	l32r	a15, 1f8 <MD5Final+0x90>
 319:	32c8      	l32i.n	a12, a2, 12
 31b:	02e8      	l32i.n	a14, a2, 0
 31d:	300c80        	xor	a0, a12, a8
 320:	100900        	and	a0, a9, a0
 323:	300c00        	xor	a0, a12, a0
 326:	070a      	add.n	a0, a7, a0
 328:	ee0a      	add.n	a14, a14, a0
 32a:	eefa      	add.n	a14, a14, a15
 32c:	81eee0        	src	a14, a14, a14
 32f:	30f890        	xor	a15, a8, a9
 332:	404410        	ssai	20
 335:	e9ea      	add.n	a14, a9, a14
 337:	10fef0        	and	a15, a14, a15
 33a:	30b9e0        	xor	a11, a9, a14
 33d:	30f8f0        	xor	a15, a8, a15
 340:	ddfa      	add.n	a13, a13, a15
 342:	ccda      	add.n	a12, a12, a13
 344:	ffaed1        	l32r	a13, 1fc <MD5Final+0x94>
 347:	43f8      	l32i.n	a15, a3, 16
 349:	ccda      	add.n	a12, a12, a13
 34b:	81ccc0        	src	a12, a12, a12
 34e:	ceca      	add.n	a12, a14, a12
 350:	404f00        	ssai	15
 353:	10bcb0        	and	a11, a12, a11
 356:	30b9b0        	xor	a11, a9, a11
 359:	baba      	add.n	a11, a10, a11
 35b:	88ba      	add.n	a8, a8, a11
 35d:	ffa8b1        	l32r	a11, 200 <MD5Final+0x98>
 360:	30dec0        	xor	a13, a14, a12
 363:	88ba      	add.n	a8, a8, a11
 365:	33b8      	l32i.n	a11, a3, 12
 367:	818880        	src	a8, a8, a8
 36a:	8c8a      	add.n	a8, a12, a8
 36c:	404a00        	ssai	10
 36f:	10d8d0        	and	a13, a8, a13
 372:	30ded0        	xor	a13, a14, a13
 375:	bbda      	add.n	a11, a11, a13
 377:	99ba      	add.n	a9, a9, a11
 379:	ffa2b1        	l32r	a11, 204 <MD5Final+0x9c>
 37c:	3008c0        	xor	a0, a8, a12
 37f:	99ba      	add.n	a9, a9, a11
 381:	63b8      	l32i.n	a11, a3, 24
 383:	819990        	src	a9, a9, a9
 386:	989a      	add.n	a9, a8, a9
 388:	404910        	ssai	25
 38b:	100900        	and	a0, a9, a0
 38e:	300c00        	xor	a0, a12, a0
 391:	ff0a      	add.n	a15, a15, a0
 393:	eefa      	add.n	a14, a14, a15
 395:	ff9cf1        	l32r	a15, 208 <MD5Final+0xa0>
 398:	30d980        	xor	a13, a9, a8
 39b:	eefa      	add.n	a14, a14, a15
 39d:	81eee0        	src	a14, a14, a14
 3a0:	83f8      	l32i.n	a15, a3, 32
 3a2:	e9ea      	add.n	a14, a9, a14
 3a4:	10ded0        	and	a13, a14, a13
 3a7:	30d8d0        	xor	a13, a8, a13
 3aa:	d4da      	add.n	a13, a4, a13
 3ac:	ccda      	add.n	a12, a12, a13
 3ae:	ff97d1        	l32r	a13, 20c <MD5Final+0xa4>
 3b1:	404410        	ssai	20
 3b4:	ccda      	add.n	a12, a12, a13
 3b6:	81ccc0        	src	a12, a12, a12
 3b9:	30de90        	xor	a13, a14, a9
 3bc:	ceca      	add.n	a12, a14, a12
 3be:	10dcd0        	and	a13, a12, a13
 3c1:	30d9d0        	xor	a13, a9, a13
 3c4:	bbda      	add.n	a11, a11, a13
 3c6:	88ba      	add.n	a8, a8, a11
 3c8:	ff92b1        	l32r	a11, 210 <MD5Final+0xa8>
 3cb:	404f00        	ssai	15
 3ce:	88ba      	add.n	a8, a8, a11
 3d0:	30bec0        	xor	a11, a14, a12
 3d3:	818880        	src	a8, a8, a8
 3d6:	8c8a      	add.n	a8, a12, a8
 3d8:	404a00        	ssai	10
 3db:	10b8b0        	and	a11, a8, a11
 3de:	30beb0        	xor	a11, a14, a11
 3e1:	b6ba      	add.n	a11, a6, a11
 3e3:	99ba      	add.n	a9, a9, a11
 3e5:	ff8bb1        	l32r	a11, 214 <MD5Final+0xac>
 3e8:	3008c0        	xor	a0, a8, a12
 3eb:	99ba      	add.n	a9, a9, a11
 3ed:	819990        	src	a9, a9, a9
 3f0:	93b8      	l32i.n	a11, a3, 36
 3f2:	404910        	ssai	25
 3f5:	989a      	add.n	a9, a8, a9
 3f7:	100900        	and	a0, a9, a0
 3fa:	30d980        	xor	a13, a9, a8
 3fd:	300c00        	xor	a0, a12, a0
 400:	ff0a      	add.n	a15, a15, a0
 402:	eefa      	add.n	a14, a14, a15
 404:	ff85f1        	l32r	a15, 218 <MD5Final+0xb0>
 407:	c308      	l32i.n	a0, a3, 48
 409:	eefa      	add.n	a14, a14, a15
 40b:	81eee0        	src	a14, a14, a14
 40e:	e9ea      	add.n	a14, a9, a14
 410:	404410        	ssai	20
 413:	10ded0        	and	a13, a14, a13
 416:	30d8d0        	xor	a13, a8, a13
 419:	dbda      	add.n	a13, a11, a13
 41b:	ccda      	add.n	a12, a12, a13
 41d:	ff7fd1        	l32r	a13, 21c <MD5Final+0xb4>
 420:	30fe90        	xor	a15, a14, a9
 423:	ccda      	add.n	a12, a12, a13
 425:	a3d8      	l32i.n	a13, a3, 40
 427:	81ccc0        	src	a12, a12, a12
 42a:	ceca      	add.n	a12, a14, a12
 42c:	404f00        	ssai	15
 42f:	10fcf0        	and	a15, a12, a15
 432:	30f9f0        	xor	a15, a9, a15
 435:	ddfa      	add.n	a13, a13, a15
 437:	88da      	add.n	a8, a8, a13
 439:	ff79d1        	l32r	a13, 220 <MD5Final+0xb8>
 43c:	b3f8      	l32i.n	a15, a3, 44
 43e:	88da      	add.n	a8, a8, a13
 440:	30dec0        	xor	a13, a14, a12
 443:	818880        	src	a8, a8, a8
 446:	8c8a      	add.n	a8, a12, a8
 448:	404a00        	ssai	10
 44b:	10d8d0        	and	a13, a8, a13
 44e:	30ded0        	xor	a13, a14, a13
 451:	dfda      	add.n	a13, a15, a13
 453:	99da      	add.n	a9, a9, a13
 455:	ff73d1        	l32r	a13, 224 <MD5Final+0xbc>
 458:	3058c0        	xor	a5, a8, a12
 45b:	99da      	add.n	a9, a9, a13
 45d:	d3d8      	l32i.n	a13, a3, 52
 45f:	819990        	src	a9, a9, a9
 462:	989a      	add.n	a9, a8, a9
 464:	404910        	ssai	25
 467:	105950        	and	a5, a9, a5
 46a:	305c50        	xor	a5, a12, a5
 46d:	005a      	add.n	a0, a0, a5
 46f:	ee0a      	add.n	a14, a14, a0
 471:	ff6d01        	l32r	a0, 228 <MD5Final+0xc0>
 474:	e358      	l32i.n	a5, a3, 56
 476:	ee0a      	add.n	a14, a14, a0
 478:	81eee0        	src	a14, a14, a14
 47b:	300980        	xor	a0, a9, a8
 47e:	e9ea      	add.n	a14, a9, a14
 480:	100e00        	and	a0, a14, a0
 483:	300800        	xor	a0, a8, a0
 486:	dd0a      	add.n	a13, a13, a0
 488:	ccda      	add.n	a12, a12, a13
 48a:	ff68d1        	l32r	a13, 22c <MD5Final+0xc4>
 48d:	404410        	ssai	20
 490:	ccda      	add.n	a12, a12, a13
 492:	30de90        	xor	a13, a14, a9
 495:	81ccc0        	src	a12, a12, a12
 498:	ceca      	add.n	a12, a14, a12
 49a:	404f00        	ssai	15
 49d:	10dcd0        	and	a13, a12, a13
 4a0:	30d9d0        	xor	a13, a9, a13
 4a3:	d5da      	add.n	a13, a5, a13
 4a5:	88da      	add.n	a8, a8, a13
 4a7:	ff62d1        	l32r	a13, 230 <MD5Final+0xc8>
 4aa:	300ec0        	xor	a0, a14, a12
 4ad:	88da      	add.n	a8, a8, a13
 4af:	f3d8      	l32i.n	a13, a3, 60
 4b1:	818880        	src	a8, a8, a8
 4b4:	8c8a      	add.n	a8, a12, a8
 4b6:	404a00        	ssai	10
 4b9:	100800        	and	a0, a8, a0
 4bc:	300e00        	xor	a0, a14, a0
 4bf:	dd0a      	add.n	a13, a13, a0
 4c1:	99da      	add.n	a9, a9, a13
 4c3:	ff5cd1        	l32r	a13, 234 <MD5Final+0xcc>
 4c6:	1308      	l32i.n	a0, a3, 4
 4c8:	99da      	add.n	a9, a9, a13
 4ca:	819990        	src	a9, a9, a9
 4cd:	989a      	add.n	a9, a8, a9
 4cf:	404b10        	ssai	27
 4d2:	30d980        	xor	a13, a9, a8
 4d5:	10dcd0        	and	a13, a12, a13
 4d8:	30d8d0        	xor	a13, a8, a13
 4db:	00da      	add.n	a0, a0, a13
 4dd:	ee0a      	add.n	a14, a14, a0
 4df:	ff5601        	l32r	a0, 238 <MD5Final+0xd0>
 4e2:	63d8      	l32i.n	a13, a3, 24
 4e4:	ee0a      	add.n	a14, a14, a0
 4e6:	81eee0        	src	a14, a14, a14
 4e9:	e9ea      	add.n	a14, a9, a14
 4eb:	300e90        	xor	a0, a14, a9
 4ee:	100800        	and	a0, a8, a0
 4f1:	300900        	xor	a0, a9, a0
 4f4:	dd0a      	add.n	a13, a13, a0
 4f6:	ccda      	add.n	a12, a12, a13
 4f8:	ff51d1        	l32r	a13, 23c <MD5Final+0xd4>
 4fb:	404710        	ssai	23
 4fe:	ccda      	add.n	a12, a12, a13
 500:	81ccc0        	src	a12, a12, a12
 503:	ceca      	add.n	a12, a14, a12
 505:	30dec0        	xor	a13, a14, a12
 508:	10d9d0        	and	a13, a9, a13
 50b:	30ded0        	xor	a13, a14, a13
 50e:	dfda      	add.n	a13, a15, a13
 510:	88da      	add.n	a8, a8, a13
 512:	ff4bd1        	l32r	a13, 240 <MD5Final+0xd8>
 515:	404210        	ssai	18
 518:	88da      	add.n	a8, a8, a13
 51a:	818880        	src	a8, a8, a8
 51d:	8c8a      	add.n	a8, a12, a8
 51f:	30d8c0        	xor	a13, a8, a12
 522:	10ded0        	and	a13, a14, a13
 525:	30dcd0        	xor	a13, a12, a13
 528:	d7da      	add.n	a13, a7, a13
 52a:	99da      	add.n	a9, a9, a13
 52c:	ff46d1        	l32r	a13, 244 <MD5Final+0xdc>
 52f:	404c00        	ssai	12
 532:	99da      	add.n	a9, a9, a13
 534:	819990        	src	a9, a9, a9
 537:	a3d8      	l32i.n	a13, a3, 40
 539:	989a      	add.n	a9, a8, a9
 53b:	300980        	xor	a0, a9, a8
 53e:	100c00        	and	a0, a12, a0
 541:	300800        	xor	a0, a8, a0
 544:	040a      	add.n	a0, a4, a0
 546:	ee0a      	add.n	a14, a14, a0
 548:	ff4001        	l32r	a0, 248 <MD5Final+0xe0>
 54b:	404b10        	ssai	27
 54e:	ee0a      	add.n	a14, a14, a0
 550:	81eee0        	src	a14, a14, a14
 553:	e9ea      	add.n	a14, a9, a14
 555:	300e90        	xor	a0, a14, a9
 558:	100800        	and	a0, a8, a0
 55b:	300900        	xor	a0, a9, a0
 55e:	dd0a      	add.n	a13, a13, a0
 560:	ccda      	add.n	a12, a12, a13
 562:	ff3ad1        	l32r	a13, 24c <MD5Final+0xe4>
 565:	404710        	ssai	23
 568:	ccda      	add.n	a12, a12, a13
 56a:	81ccc0        	src	a12, a12, a12
 56d:	f3d8      	l32i.n	a13, a3, 60
 56f:	ceca      	add.n	a12, a14, a12
 571:	300ec0        	xor	a0, a14, a12
 574:	100900        	and	a0, a9, a0
 577:	300e00        	xor	a0, a14, a0
 57a:	dd0a      	add.n	a13, a13, a0
 57c:	88da      	add.n	a8, a8, a13
 57e:	ff34d1        	l32r	a13, 250 <MD5Final+0xe8>
 581:	404210        	ssai	18
 584:	88da      	add.n	a8, a8, a13
 586:	818880        	src	a8, a8, a8
 589:	43d8      	l32i.n	a13, a3, 16
 58b:	8c8a      	add.n	a8, a12, a8
 58d:	3008c0        	xor	a0, a8, a12
 590:	100e00        	and	a0, a14, a0
 593:	300c00        	xor	a0, a12, a0
 596:	dd0a      	add.n	a13, a13, a0
 598:	99da      	add.n	a9, a9, a13
 59a:	ff2ed1        	l32r	a13, 254 <MD5Final+0xec>
 59d:	404c00        	ssai	12
 5a0:	99da      	add.n	a9, a9, a13
 5a2:	819990        	src	a9, a9, a9
 5a5:	989a      	add.n	a9, a8, a9
 5a7:	300980        	xor	a0, a9, a8
 5aa:	100c00        	and	a0, a12, a0
 5ad:	300800        	xor	a0, a8, a0
 5b0:	0b0a      	add.n	a0, a11, a0
 5b2:	ee0a      	add.n	a14, a14, a0
 5b4:	ff2901        	l32r	a0, 258 <MD5Final+0xf0>
 5b7:	404b10        	ssai	27
 5ba:	ee0a      	add.n	a14, a14, a0
 5bc:	81eee0        	src	a14, a14, a14
 5bf:	e9ea      	add.n	a14, a9, a14
 5c1:	30de90        	xor	a13, a14, a9
 5c4:	10d8d0        	and	a13, a8, a13
 5c7:	30d9d0        	xor	a13, a9, a13
 5ca:	d5da      	add.n	a13, a5, a13
 5cc:	ccda      	add.n	a12, a12, a13
 5ce:	ff23d1        	l32r	a13, 25c <MD5Final+0xf4>
 5d1:	404710        	ssai	23
 5d4:	ccda      	add.n	a12, a12, a13
 5d6:	81ccc0        	src	a12, a12, a12
 5d9:	33d8      	l32i.n	a13, a3, 12
 5db:	ceca      	add.n	a12, a14, a12
 5dd:	300ec0        	xor	a0, a14, a12
 5e0:	100900        	and	a0, a9, a0
 5e3:	300e00        	xor	a0, a14, a0
 5e6:	dd0a      	add.n	a13, a13, a0
 5e8:	88da      	add.n	a8, a8, a13
 5ea:	ff1dd1        	l32r	a13, 260 <MD5Final+0xf8>
 5ed:	404210        	ssai	18
 5f0:	88da      	add.n	a8, a8, a13
 5f2:	83d8      	l32i.n	a13, a3, 32
 5f4:	818880        	src	a8, a8, a8
 5f7:	8c8a      	add.n	a8, a12, a8
 5f9:	404c00        	ssai	12
 5fc:	3008c0        	xor	a0, a8, a12
 5ff:	100e00        	and	a0, a14, a0
 602:	300c00        	xor	a0, a12, a0
 605:	dd0a      	add.n	a13, a13, a0
 607:	99da      	add.n	a9, a9, a13
 609:	ff16d1        	l32r	a13, 264 <MD5Final+0xfc>
 60c:	d308      	l32i.n	a0, a3, 52
 60e:	99da      	add.n	a9, a9, a13
 610:	819990        	src	a9, a9, a9
 613:	989a      	add.n	a9, a8, a9
 615:	30d980        	xor	a13, a9, a8
 618:	10dcd0        	and	a13, a12, a13
 61b:	30d8d0        	xor	a13, a8, a13
 61e:	00da      	add.n	a0, a0, a13
 620:	ee0a      	add.n	a14, a14, a0
 622:	ff1101        	l32r	a0, 268 <MD5Final+0x100>
 625:	404b10        	ssai	27
 628:	ee0a      	add.n	a14, a14, a0
 62a:	81eee0        	src	a14, a14, a14
 62d:	e9ea      	add.n	a14, a9, a14
 62f:	30de90        	xor	a13, a14, a9
 632:	10d8d0        	and	a13, a8, a13
 635:	30d9d0        	xor	a13, a9, a13
 638:	dada      	add.n	a13, a10, a13
 63a:	ccda      	add.n	a12, a12, a13
 63c:	ff0cd1        	l32r	a13, 26c <MD5Final+0x104>
 63f:	404710        	ssai	23
 642:	ccda      	add.n	a12, a12, a13
 644:	81ccc0        	src	a12, a12, a12
 647:	ceca      	add.n	a12, a14, a12
 649:	30dec0        	xor	a13, a14, a12
 64c:	10d9d0        	and	a13, a9, a13
 64f:	30ded0        	xor	a13, a14, a13
 652:	d6da      	add.n	a13, a6, a13
 654:	88da      	add.n	a8, a8, a13
 656:	ff06d1        	l32r	a13, 270 <MD5Final+0x108>
 659:	404210        	ssai	18
 65c:	88da      	add.n	a8, a8, a13
 65e:	818880        	src	a8, a8, a8
 661:	c3d8      	l32i.n	a13, a3, 48
 663:	8c8a      	add.n	a8, a12, a8
 665:	3008c0        	xor	a0, a8, a12
 668:	100e00        	and	a0, a14, a0
 66b:	300c00        	xor	a0, a12, a0
 66e:	dd0a      	add.n	a13, a13, a0
 670:	99da      	add.n	a9, a9, a13
 672:	ff00d1        	l32r	a13, 274 <MD5Final+0x10c>
 675:	404c00        	ssai	12
 678:	99da      	add.n	a9, a9, a13
 67a:	819990        	src	a9, a9, a9
 67d:	83d8      	l32i.n	a13, a3, 32
 67f:	989a      	add.n	a9, a8, a9
 681:	300980        	xor	a0, a9, a8
 684:	300c00        	xor	a0, a12, a0
 687:	040a      	add.n	a0, a4, a0
 689:	ee0a      	add.n	a14, a14, a0
 68b:	fefb01        	l32r	a0, 278 <MD5Final+0x110>
 68e:	404c10        	ssai	28
 691:	ee0a      	add.n	a14, a14, a0
 693:	81eee0        	src	a14, a14, a14
 696:	e9ea      	add.n	a14, a9, a14
 698:	404510        	ssai	21
 69b:	300e90        	xor	a0, a14, a9
 69e:	300800        	xor	a0, a8, a0
 6a1:	dd0a      	add.n	a13, a13, a0
 6a3:	ccda      	add.n	a12, a12, a13
 6a5:	fef5d1        	l32r	a13, 27c <MD5Final+0x114>
 6a8:	1308      	l32i.n	a0, a3, 4
 6aa:	ccda      	add.n	a12, a12, a13
 6ac:	81ccc0        	src	a12, a12, a12
 6af:	ceca      	add.n	a12, a14, a12
 6b1:	30dec0        	xor	a13, a14, a12
 6b4:	30d9d0        	xor	a13, a9, a13
 6b7:	dfda      	add.n	a13, a15, a13
 6b9:	88da      	add.n	a8, a8, a13
 6bb:	fef1d1        	l32r	a13, 280 <MD5Final+0x118>
 6be:	404010        	ssai	16
 6c1:	88da      	add.n	a8, a8, a13
 6c3:	818880        	src	a8, a8, a8
 6c6:	8c8a      	add.n	a8, a12, a8
 6c8:	30d8c0        	xor	a13, a8, a12
 6cb:	30ded0        	xor	a13, a14, a13
 6ce:	d5da      	add.n	a13, a5, a13
 6d0:	99da      	add.n	a9, a9, a13
 6d2:	feecd1        	l32r	a13, 284 <MD5Final+0x11c>
 6d5:	404900        	ssai	9
 6d8:	99da      	add.n	a9, a9, a13
 6da:	819990        	src	a9, a9, a9
 6dd:	989a      	add.n	a9, a8, a9
 6df:	404c10        	ssai	28
 6e2:	30d980        	xor	a13, a9, a8
 6e5:	30dcd0        	xor	a13, a12, a13
 6e8:	00da      	add.n	a0, a0, a13
 6ea:	ee0a      	add.n	a14, a14, a0
 6ec:	fee701        	l32r	a0, 288 <MD5Final+0x120>
 6ef:	43d8      	l32i.n	a13, a3, 16
 6f1:	ee0a      	add.n	a14, a14, a0
 6f3:	81eee0        	src	a14, a14, a14
 6f6:	e9ea      	add.n	a14, a9, a14
 6f8:	300e90        	xor	a0, a14, a9
 6fb:	300800        	xor	a0, a8, a0
 6fe:	dd0a      	add.n	a13, a13, a0
 700:	ccda      	add.n	a12, a12, a13
 702:	fee2d1        	l32r	a13, 28c <MD5Final+0x124>
 705:	404510        	ssai	21
 708:	ccda      	add.n	a12, a12, a13
 70a:	81ccc0        	src	a12, a12, a12
 70d:	ceca      	add.n	a12, a14, a12
 70f:	30dec0        	xor	a13, a14, a12
 712:	30d9d0        	xor	a13, a9, a13
 715:	d6da      	add.n	a13, a6, a13
 717:	88da      	add.n	a8, a8, a13
 719:	feddd1        	l32r	a13, 290 <MD5Final+0x128>
 71c:	404010        	ssai	16
 71f:	88da      	add.n	a8, a8, a13
 721:	a3d8      	l32i.n	a13, a3, 40
 723:	818880        	src	a8, a8, a8
 726:	8c8a      	add.n	a8, a12, a8
 728:	404900        	ssai	9
 72b:	3008c0        	xor	a0, a8, a12
 72e:	300e00        	xor	a0, a14, a0
 731:	dd0a      	add.n	a13, a13, a0
 733:	99da      	add.n	a9, a9, a13
 735:	fed7d1        	l32r	a13, 294 <MD5Final+0x12c>
 738:	d308      	l32i.n	a0, a3, 52
 73a:	99da      	add.n	a9, a9, a13
 73c:	819990        	src	a9, a9, a9
 73f:	989a      	add.n	a9, a8, a9
 741:	30d980        	xor	a13, a9, a8
 744:	30dcd0        	xor	a13, a12, a13
 747:	00da      	add.n	a0, a0, a13
 749:	ee0a      	add.n	a14, a14, a0
 74b:	fed301        	l32r	a0, 298 <MD5Final+0x130>
 74e:	404c10        	ssai	28
 751:	ee0a      	add.n	a14, a14, a0
 753:	81eee0        	src	a14, a14, a14
 756:	e9ea      	add.n	a14, a9, a14
 758:	30de90        	xor	a13, a14, a9
 75b:	30d8d0        	xor	a13, a8, a13
 75e:	d7da      	add.n	a13, a7, a13
 760:	ccda      	add.n	a12, a12, a13
 762:	feced1        	l32r	a13, 29c <MD5Final+0x134>
 765:	404510        	ssai	21
 768:	ccda      	add.n	a12, a12, a13
 76a:	81ccc0        	src	a12, a12, a12
 76d:	33d8      	l32i.n	a13, a3, 12
 76f:	ceca      	add.n	a12, a14, a12
 771:	300ec0        	xor	a0, a14, a12
 774:	300900        	xor	a0, a9, a0
 777:	dd0a      	add.n	a13, a13, a0
 779:	88da      	add.n	a8, a8, a13
 77b:	fec9d1        	l32r	a13, 2a0 <MD5Final+0x138>
 77e:	404010        	ssai	16
 781:	88da      	add.n	a8, a8, a13
 783:	818880        	src	a8, a8, a8
 786:	63d8      	l32i.n	a13, a3, 24
 788:	8c8a      	add.n	a8, a12, a8
 78a:	3008c0        	xor	a0, a8, a12
 78d:	300e00        	xor	a0, a14, a0
 790:	dd0a      	add.n	a13, a13, a0
 792:	99da      	add.n	a9, a9, a13
 794:	fec4d1        	l32r	a13, 2a4 <MD5Final+0x13c>
 797:	404900        	ssai	9
 79a:	99da      	add.n	a9, a9, a13
 79c:	819990        	src	a9, a9, a9
 79f:	c3d8      	l32i.n	a13, a3, 48
 7a1:	989a      	add.n	a9, a8, a9
 7a3:	300980        	xor	a0, a9, a8
 7a6:	300c00        	xor	a0, a12, a0
 7a9:	0b0a      	add.n	a0, a11, a0
 7ab:	ee0a      	add.n	a14, a14, a0
 7ad:	febe01        	l32r	a0, 2a8 <MD5Final+0x140>
 7b0:	404c10        	ssai	28
 7b3:	ee0a      	add.n	a14, a14, a0
 7b5:	81eee0        	src	a14, a14, a14
 7b8:	e9ea      	add.n	a14, a9, a14
 7ba:	404510        	ssai	21
 7bd:	300e90        	xor	a0, a14, a9
 7c0:	300800        	xor	a0, a8, a0
 7c3:	dd0a      	add.n	a13, a13, a0
 7c5:	ccda      	add.n	a12, a12, a13
 7c7:	feb9d1        	l32r	a13, 2ac <MD5Final+0x144>
 7ca:	f308      	l32i.n	a0, a3, 60
 7cc:	ccda      	add.n	a12, a12, a13
 7ce:	81ccc0        	src	a12, a12, a12
 7d1:	ceca      	add.n	a12, a14, a12
 7d3:	30dec0        	xor	a13, a14, a12
 7d6:	30d9d0        	xor	a13, a9, a13
 7d9:	d0da      	add.n	a13, a0, a13
 7db:	88da      	add.n	a8, a8, a13
 7dd:	feb4d1        	l32r	a13, 2b0 <MD5Final+0x148>
 7e0:	404010        	ssai	16
 7e3:	88da      	add.n	a8, a8, a13
 7e5:	818880        	src	a8, a8, a8
 7e8:	8c8a      	add.n	a8, a12, a8
 7ea:	30d8c0        	xor	a13, a8, a12
 7ed:	30ded0        	xor	a13, a14, a13
 7f0:	dada      	add.n	a13, a10, a13
 7f2:	99da      	add.n	a9, a9, a13
 7f4:	feb0d1        	l32r	a13, 2b4 <MD5Final+0x14c>
 7f7:	404900        	ssai	9
 7fa:	99da      	add.n	a9, a9, a13
 7fc:	819990        	src	a9, a9, a9
 7ff:	fd7c      	movi.n	a13, -1
 801:	30dcd0        	xor	a13, a12, a13
 804:	989a      	add.n	a9, a8, a9
 806:	404a10        	ssai	26
 809:	20d9d0        	or	a13, a9, a13
 80c:	30d8d0        	xor	a13, a8, a13
 80f:	77da      	add.n	a7, a7, a13
 811:	ee7a      	add.n	a14, a14, a7
 813:	fea971        	l32r	a7, 2b8 <MD5Final+0x150>
 816:	fd7c      	movi.n	a13, -1
 818:	ee7a      	add.n	a14, a14, a7
 81a:	3078d0        	xor	a7, a8, a13
 81d:	81eee0        	src	a14, a14, a14
 820:	e9ea      	add.n	a14, a9, a14
 822:	404610        	ssai	22
 825:	207e70        	or	a7, a14, a7
 828:	307970        	xor	a7, a9, a7
 82b:	667a      	add.n	a6, a6, a7
 82d:	cc6a      	add.n	a12, a12, a6
 82f:	fea361        	l32r	a6, 2bc <MD5Final+0x154>
 832:	1278      	l32i.n	a7, a2, 4
 834:	cc6a      	add.n	a12, a12, a6
 836:	81ccc0        	src	a12, a12, a12
 839:	3069d0        	xor	a6, a9, a13
 83c:	ceca      	add.n	a12, a14, a12
 83e:	206c60        	or	a6, a12, a6
 841:	306e60        	xor	a6, a14, a6
 844:	556a      	add.n	a5, a5, a6
 846:	885a      	add.n	a8, a8, a5
 848:	fe9e51        	l32r	a5, 2c0 <MD5Final+0x158>
 84b:	404110        	ssai	17
 84e:	885a      	add.n	a8, a8, a5
 850:	305ed0        	xor	a5, a14, a13
 853:	818880        	src	a8, a8, a8
 856:	8c8a      	add.n	a8, a12, a8
 858:	404b00        	ssai	11
 85b:	205850        	or	a5, a8, a5
 85e:	305c50        	xor	a5, a12, a5
 861:	445a      	add.n	a4, a4, a5
 863:	994a      	add.n	a9, a9, a4
 865:	fe9741        	l32r	a4, 2c4 <MD5Final+0x15c>
 868:	305cd0        	xor	a5, a12, a13
 86b:	994a      	add.n	a9, a9, a4
 86d:	c348      	l32i.n	a4, a3, 48
 86f:	819990        	src	a9, a9, a9
 872:	989a      	add.n	a9, a8, a9
 874:	404a10        	ssai	26
 877:	205950        	or	a5, a9, a5
 87a:	305850        	xor	a5, a8, a5
 87d:	445a      	add.n	a4, a4, a5
 87f:	ee4a      	add.n	a14, a14, a4
 881:	fe9141        	l32r	a4, 2c8 <MD5Final+0x160>
 884:	3058d0        	xor	a5, a8, a13
 887:	ee4a      	add.n	a14, a14, a4
 889:	3348      	l32i.n	a4, a3, 12
 88b:	81eee0        	src	a14, a14, a14
 88e:	e9ea      	add.n	a14, a9, a14
 890:	404610        	ssai	22
 893:	205e50        	or	a5, a14, a5
 896:	305950        	xor	a5, a9, a5
 899:	445a      	add.n	a4, a4, a5
 89b:	cc4a      	add.n	a12, a12, a4
 89d:	fe8b41        	l32r	a4, 2cc <MD5Final+0x164>
 8a0:	3059d0        	xor	a5, a9, a13
 8a3:	cc4a      	add.n	a12, a12, a4
 8a5:	a348      	l32i.n	a4, a3, 40
 8a7:	81ccc0        	src	a12, a12, a12
 8aa:	ceca      	add.n	a12, a14, a12
 8ac:	404110        	ssai	17
 8af:	205c50        	or	a5, a12, a5
 8b2:	305e50        	xor	a5, a14, a5
 8b5:	445a      	add.n	a4, a4, a5
 8b7:	884a      	add.n	a8, a8, a4
 8b9:	fe8541        	l32r	a4, 2d0 <MD5Final+0x168>
 8bc:	305ed0        	xor	a5, a14, a13
 8bf:	884a      	add.n	a8, a8, a4
 8c1:	1348      	l32i.n	a4, a3, 4
 8c3:	818880        	src	a8, a8, a8
 8c6:	8c8a      	add.n	a8, a12, a8
 8c8:	404b00        	ssai	11
 8cb:	205850        	or	a5, a8, a5
 8ce:	305c50        	xor	a5, a12, a5
 8d1:	445a      	add.n	a4, a4, a5
 8d3:	994a      	add.n	a9, a9, a4
 8d5:	fe7f41        	l32r	a4, 2d4 <MD5Final+0x16c>
 8d8:	305cd0        	xor	a5, a12, a13
 8db:	994a      	add.n	a9, a9, a4
 8dd:	819990        	src	a9, a9, a9
 8e0:	8348      	l32i.n	a4, a3, 32
 8e2:	989a      	add.n	a9, a8, a9
 8e4:	205950        	or	a5, a9, a5
 8e7:	305850        	xor	a5, a8, a5
 8ea:	445a      	add.n	a4, a4, a5
 8ec:	ee4a      	add.n	a14, a14, a4
 8ee:	fe7a41        	l32r	a4, 2d8 <MD5Final+0x170>
 8f1:	404a10        	ssai	26
 8f4:	ee4a      	add.n	a14, a14, a4
 8f6:	3048d0        	xor	a4, a8, a13
 8f9:	81eee0        	src	a14, a14, a14
 8fc:	e9ea      	add.n	a14, a9, a14
 8fe:	404610        	ssai	22
 901:	204e40        	or	a4, a14, a4
 904:	304940        	xor	a4, a9, a4
 907:	004a      	add.n	a0, a0, a4
 909:	cc0a      	add.n	a12, a12, a0
 90b:	fe7401        	l32r	a0, 2dc <MD5Final+0x174>
 90e:	3049d0        	xor	a4, a9, a13
 911:	cc0a      	add.n	a12, a12, a0
 913:	6308      	l32i.n	a0, a3, 24
 915:	81ccc0        	src	a12, a12, a12
 918:	ceca      	add.n	a12, a14, a12
 91a:	404110        	ssai	17
 91d:	204c40        	or	a4, a12, a4
 920:	304e40        	xor	a4, a14, a4
 923:	004a      	add.n	a0, a0, a4
 925:	880a      	add.n	a8, a8, a0
 927:	fe6e01        	l32r	a0, 2e0 <MD5Final+0x178>
 92a:	304ed0        	xor	a4, a14, a13
 92d:	880a      	add.n	a8, a8, a0
 92f:	d308      	l32i.n	a0, a3, 52
 931:	818880        	src	a8, a8, a8
 934:	8c8a      	add.n	a8, a12, a8
 936:	404b00        	ssai	11
 939:	204840        	or	a4, a8, a4
 93c:	304c40        	xor	a4, a12, a4
 93f:	004a      	add.n	a0, a0, a4
 941:	990a      	add.n	a9, a9, a0
 943:	fe6801        	l32r	a0, 2e4 <MD5Final+0x17c>
 946:	304cd0        	xor	a4, a12, a13
 949:	990a      	add.n	a9, a9, a0
 94b:	4308      	l32i.n	a0, a3, 16
 94d:	819990        	src	a9, a9, a9
 950:	989a      	add.n	a9, a8, a9
 952:	404a10        	ssai	26
 955:	204940        	or	a4, a9, a4
 958:	304840        	xor	a4, a8, a4
 95b:	004a      	add.n	a0, a0, a4
 95d:	ee0a      	add.n	a14, a14, a0
 95f:	fe6201        	l32r	a0, 2e8 <MD5Final+0x180>
 962:	0248      	l32i.n	a4, a2, 0
 964:	ee0a      	add.n	a14, a14, a0
 966:	81eee0        	src	a14, a14, a14
 969:	3008d0        	xor	a0, a8, a13
 96c:	404610        	ssai	22
 96f:	e9ea      	add.n	a14, a9, a14
 971:	44ea      	add.n	a4, a4, a14
 973:	200e00        	or	a0, a14, a0
 976:	300900        	xor	a0, a9, a0
 979:	0249      	s32i.n	a4, a2, 0
 97b:	ff0a      	add.n	a15, a15, a0
 97d:	ccfa      	add.n	a12, a12, a15
 97f:	fe5bf1        	l32r	a15, 2ec <MD5Final+0x184>
 982:	0108      	l32i.n	a0, a1, 0
 984:	ccfa      	add.n	a12, a12, a15
 986:	32f8      	l32i.n	a15, a2, 12
 988:	81ccc0        	src	a12, a12, a12
 98b:	ceca      	add.n	a12, a14, a12
 98d:	ffca      	add.n	a15, a15, a12
 98f:	404110        	ssai	17
 992:	32f9      	s32i.n	a15, a2, 12
 994:	30f9d0        	xor	a15, a9, a13
 997:	30ded0        	xor	a13, a14, a13
 99a:	20fcf0        	or	a15, a12, a15
 99d:	30eef0        	xor	a14, a14, a15
 9a0:	aaea      	add.n	a10, a10, a14
 9a2:	41f8      	l32i.n	a15, a1, 16
 9a4:	88aa      	add.n	a8, a8, a10
 9a6:	fe52a1        	l32r	a10, 2f0 <MD5Final+0x188>
 9a9:	22e8      	l32i.n	a14, a2, 8
 9ab:	88aa      	add.n	a8, a8, a10
 9ad:	818880        	src	a8, a8, a8
 9b0:	fe51a1        	l32r	a10, 2f4 <MD5Final+0x18c>
 9b3:	404b00        	ssai	11
 9b6:	8c8a      	add.n	a8, a12, a8
 9b8:	ee8a      	add.n	a14, a14, a8
 9ba:	20d8d0        	or	a13, a8, a13
 9bd:	30ccd0        	xor	a12, a12, a13
 9c0:	22e9      	s32i.n	a14, a2, 8
 9c2:	21d8      	l32i.n	a13, a1, 8
 9c4:	31e8      	l32i.n	a14, a1, 12
 9c6:	bbca      	add.n	a11, a11, a12
 9c8:	99ba      	add.n	a9, a9, a11
 9ca:	11c8      	l32i.n	a12, a1, 4
 9cc:	99aa      	add.n	a9, a9, a10
 9ce:	819990        	src	a9, a9, a9
 9d1:	889a      	add.n	a8, a8, a9
 9d3:	778a      	add.n	a7, a7, a8
 9d5:	1279      	s32i.n	a7, a2, 4
 9d7:	20c112        	addi	a1, a1, 32
 9da:	f00d      	ret.n
