
wpa_auth_ie.o:     file format elf32-xtensa-le


Disassembly of section .irom0.text:

00000000 <wpa_write_rsn_ie-0xdc>:
	...
   8:	ddaf42        	movi	a4, -35
   b:	050c      	movi.n	a5, 0
   d:	f0c112        	addi	a1, a1, -16
  10:	21d9      	s32i.n	a13, a1, 8
  12:	0109      	s32i.n	a0, a1, 0
  14:	11c9      	s32i.n	a12, a1, 4
  16:	005c      	movi.n	a0, 80
  18:	03cd      	mov.n	a12, a3
  1a:	074352        	s8i	a5, a3, 7
  1d:	024352        	s8i	a5, a3, 2
  20:	02dd      	mov.n	a13, a2
  22:	004342        	s8i	a4, a3, 0
  25:	120c      	movi.n	a2, 1
  27:	064322        	s8i	a2, a3, 6
  2a:	054322        	s8i	a2, a3, 5
  2d:	237c      	movi.n	a3, -14
  2f:	034c02        	s8i	a0, a12, 3
  32:	044c32        	s8i	a3, a12, 4
  35:	3d38      	l32i.n	a3, a13, 12
  37:	fff201        	l32r	a0, 0 <wpa_write_rsn_ie-0xdc>
  3a:	0000c0        	callx0	a0
  3d:	089216        	beqz	a2, ca <wpa_write_rsn_ie-0x12>
  40:	0b4c22        	s8i	a2, a12, 11
  43:	756820        	extui	a6, a2, 24, 8
  46:	f57020        	extui	a7, a2, 16, 16
  49:	418820        	srli	a8, a2, 8
  4c:	0a4c82        	s8i	a8, a12, 10
  4f:	094c72        	s8i	a7, a12, 9
  52:	084c62        	s8i	a6, a12, 8
  55:	2ceb      	addi.n	a2, a12, 14
  57:	2d38      	l32i.n	a3, a13, 8
  59:	ffea01        	l32r	a0, 4 <wpa_write_rsn_ie-0xd8>
  5c:	0000c0        	callx0	a0
  5f:	005c      	movi.n	a0, 80
  61:	237c      	movi.n	a3, -14
  63:	050c      	movi.n	a5, 0
  65:	061216        	beqz	a2, ca <wpa_write_rsn_ie-0x12>
  68:	0c4c22        	s8i	a2, a12, 12
  6b:	419820        	srli	a9, a2, 8
  6e:	a082c0        	addx4	a8, a2, a12
  71:	10c862        	addi	a6, a8, 16
  74:	0d4c92        	s8i	a9, a12, 13
  77:	1d78      	l32i.n	a7, a13, 4
  79:	290c      	movi.n	a9, 2
  7b:	176707        	bbci	a7, 0, 96 <wpa_write_rsn_ie-0x46>
  7e:	120c      	movi.n	a2, 1
  80:	14c862        	addi	a6, a8, 20
  83:	124832        	s8i	a3, a8, 18
  86:	114802        	s8i	a0, a8, 17
  89:	104852        	s8i	a5, a8, 16
  8c:	1a0c      	movi.n	a10, 1
  8e:	1348a2        	s8i	a10, a8, 19
  91:	1d78      	l32i.n	a7, a13, 4
  93:	000046        	j	98 <wpa_write_rsn_ie-0x44>
  96:	020c      	movi.n	a2, 0
  98:	0f6717        	bbci	a7, 1, ab <wpa_write_rsn_ie-0x31>
  9b:	221b      	addi.n	a2, a2, 1
  9d:	004652        	s8i	a5, a6, 0
  a0:	014602        	s8i	a0, a6, 1
  a3:	024632        	s8i	a3, a6, 2
  a6:	034692        	s8i	a9, a6, 3
  a9:	664b      	addi.n	a6, a6, 4
  ab:	b29c      	beqz.n	a2, ca <wpa_write_rsn_ie-0x12>
  ad:	0e4822        	s8i	a2, a8, 14
  b0:	41d820        	srli	a13, a2, 8
  b3:	0f48d2        	s8i	a13, a8, 15
  b6:	c026c0        	sub	a2, a6, a12
  b9:	fec2b2        	addi	a11, a2, -2
  bc:	014cb2        	s8i	a11, a12, 1
  bf:	11c8      	l32i.n	a12, a1, 4
  c1:	21d8      	l32i.n	a13, a1, 8
  c3:	0108      	l32i.n	a0, a1, 0
  c5:	10c112        	addi	a1, a1, 16
  c8:	f00d      	ret.n
  ca:	f27c      	movi.n	a2, -1
  cc:	fffbc6        	j	bf <wpa_write_rsn_ie-0x1d>
	...

000000dc <wpa_write_rsn_ie>:
  dc:	e0c112        	addi	a1, a1, -32
  df:	0149      	s32i.n	a4, a1, 0
  e1:	21c9      	s32i.n	a12, a1, 8
  e3:	31d9      	s32i.n	a13, a1, 12
  e5:	41e9      	s32i.n	a14, a1, 16
  e7:	1109      	s32i.n	a0, a1, 4
  e9:	05ed      	mov.n	a14, a5
  eb:	000c      	movi.n	a0, 0
  ed:	03dd      	mov.n	a13, a3
  ef:	02cd      	mov.n	a12, a2
  f1:	033c      	movi.n	a3, 48
  f3:	120c      	movi.n	a2, 1
  f5:	034d02        	s8i	a0, a13, 3
  f8:	024d22        	s8i	a2, a13, 2
  fb:	004d32        	s8i	a3, a13, 0
  fe:	220c      	movi.n	a2, 2
 100:	3c38      	l32i.n	a3, a12, 12
 102:	fff301        	l32r	a0, d0 <wpa_write_rsn_ie-0xc>
 105:	0000c0        	callx0	a0
 108:	0d5216        	beqz	a2, 1e1 <wpa_write_rsn_ie+0x105>
 10b:	074d22        	s8i	a2, a13, 7
 10e:	754820        	extui	a4, a2, 24, 8
 111:	f55020        	extui	a5, a2, 16, 16
 114:	416820        	srli	a6, a2, 8
 117:	064d62        	s8i	a6, a13, 6
 11a:	054d52        	s8i	a5, a13, 5
 11d:	044d42        	s8i	a4, a13, 4
 120:	2dab      	addi.n	a2, a13, 10
 122:	8c38      	l32i.n	a3, a12, 32
 124:	ffec01        	l32r	a0, d4 <wpa_write_rsn_ie-0x8>
 127:	0000c0        	callx0	a0
 12a:	000c      	movi.n	a0, 0
 12c:	1a0c      	movi.n	a10, 1
 12e:	0af216        	beqz	a2, 1e1 <wpa_write_rsn_ie+0x105>
 131:	acaf82        	movi	a8, -84
 134:	f90c      	movi.n	a9, 15
 136:	2b0c      	movi.n	a11, 2
 138:	a052d0        	addx4	a5, a2, a13
 13b:	084d22        	s8i	a2, a13, 8
 13e:	417820        	srli	a7, a2, 8
 141:	094d72        	s8i	a7, a13, 9
 144:	1c78      	l32i.n	a7, a12, 4
 146:	25cb      	addi.n	a2, a5, 12
 148:	156707        	bbci	a7, 0, 161 <wpa_write_rsn_ie+0x85>
 14b:	130c      	movi.n	a3, 1
 14d:	10c522        	addi	a2, a5, 16
 150:	0c4502        	s8i	a0, a5, 12
 153:	0d4592        	s8i	a9, a5, 13
 156:	0e4582        	s8i	a8, a5, 14
 159:	0f45a2        	s8i	a10, a5, 15
 15c:	1c78      	l32i.n	a7, a12, 4
 15e:	000046        	j	163 <wpa_write_rsn_ie+0x87>
 161:	030c      	movi.n	a3, 0
 163:	0f6717        	bbci	a7, 1, 176 <wpa_write_rsn_ie+0x9a>
 166:	331b      	addi.n	a3, a3, 1
 168:	014292        	s8i	a9, a2, 1
 16b:	024282        	s8i	a8, a2, 2
 16e:	0342b2        	s8i	a11, a2, 3
 171:	004202        	s8i	a0, a2, 0
 174:	224b      	addi.n	a2, a2, 4
 176:	067316        	beqz	a3, 1e1 <wpa_write_rsn_ie+0x105>
 179:	c90c      	movi.n	a9, 12
 17b:	040c      	movi.n	a4, 0
 17d:	180c      	movi.n	a8, 1
 17f:	0a4532        	s8i	a3, a5, 10
 182:	417830        	srli	a7, a3, 8
 185:	0b4572        	s8i	a7, a5, 11
 188:	9c68      	l32i.n	a6, a12, 36
 18a:	00a2b2        	movi	a11, 0x200
 18d:	838460        	moveqz	a8, a4, a6
 190:	bc48      	l32i.n	a4, a12, 44
 192:	20b8b0        	or	a11, a8, a11
 195:	938b40        	movnez	a8, a11, a4
 198:	ccb8      	l32i.n	a11, a12, 48
 19a:	209890        	or	a9, a8, a9
 19d:	9389b0        	movnez	a8, a9, a11
 1a0:	004282        	s8i	a8, a2, 0
 1a3:	418880        	srli	a8, a8, 8
 1a6:	014282        	s8i	a8, a2, 1
 1a9:	222b      	addi.n	a2, a2, 2
 1ab:	ce9c      	beqz.n	a14, 1cb <wpa_write_rsn_ie+0xef>
 1ad:	0188      	l32i.n	a8, a1, 0
 1af:	12c2c2        	addi	a12, a2, 18
 1b2:	8d8a      	add.n	a8, a13, a8
 1b4:	2938c7        	bltu	a8, a12, 1e1 <wpa_write_rsn_ie+0x105>
 1b7:	0e3d      	mov.n	a3, a14
 1b9:	014202        	s8i	a0, a2, 1
 1bc:	0042a2        	s8i	a10, a2, 0
 1bf:	041c      	movi.n	a4, 16
 1c1:	222b      	addi.n	a2, a2, 2
 1c3:	ffc501        	l32r	a0, d8 <wpa_write_rsn_ie-0x4>
 1c6:	0000c0        	callx0	a0
 1c9:	0c2d      	mov.n	a2, a12
 1cb:	c022d0        	sub	a2, a2, a13
 1ce:	fec292        	addi	a9, a2, -2
 1d1:	014d92        	s8i	a9, a13, 1
 1d4:	21c8      	l32i.n	a12, a1, 8
 1d6:	31d8      	l32i.n	a13, a1, 12
 1d8:	41e8      	l32i.n	a14, a1, 16
 1da:	1108      	l32i.n	a0, a1, 4
 1dc:	20c112        	addi	a1, a1, 32
 1df:	f00d      	ret.n
 1e1:	f27c      	movi.n	a2, -1
 1e3:	fffb46        	j	1d4 <wpa_write_rsn_ie+0xf8>
	...

000001f4 <wpa_auth_gen_wpa_ie>:
 1f4:	90a032        	movi	a3, 144
 1f7:	c01130        	sub	a1, a1, a3
 1fa:	2161c2        	s32i	a12, a1, 132
 1fd:	206102        	s32i	a0, a1, 128
 200:	02cd      	mov.n	a12, a2
 202:	1228      	l32i.n	a2, a2, 4
 204:	2261d2        	s32i	a13, a1, 136
 207:	156217        	bbci	a2, 1, 220 <wpa_auth_gen_wpa_ie+0x2c>
 20a:	2c4b      	addi.n	a2, a12, 4
 20c:	013d      	mov.n	a3, a1
 20e:	80a042        	movi	a4, 128
 211:	050c      	movi.n	a5, 0
 213:	000005        	call0	214 <wpa_auth_gen_wpa_ie+0x20>
 216:	04c296        	bltz	a2, 266 <wpa_auth_gen_wpa_ie+0x72>
 219:	d21a      	add.n	a13, a2, a1
 21b:	1c28      	l32i.n	a2, a12, 4
 21d:	000046        	j	222 <wpa_auth_gen_wpa_ie+0x2e>
 220:	01dd      	mov.n	a13, a1
 222:	136207        	bbci	a2, 0, 239 <wpa_auth_gen_wpa_ie+0x45>
 225:	2c4b      	addi.n	a2, a12, 4
 227:	0d3d      	mov.n	a3, a13
 229:	80a052        	movi	a5, 128
 22c:	c041d0        	sub	a4, a1, a13
 22f:	445a      	add.n	a4, a4, a5
 231:	ffdd45        	call0	8 <wpa_write_rsn_ie-0xd4>
 234:	02e296        	bltz	a2, 266 <wpa_auth_gen_wpa_ie+0x72>
 237:	d2da      	add.n	a13, a2, a13
 239:	142c22        	l32i	a2, a12, 80
 23c:	ffeb01        	l32r	a0, 1e8 <wpa_write_rsn_ie+0x10c>
 23f:	0000c0        	callx0	a0
 242:	c0dd10        	sub	a13, a13, a1
 245:	0d2d      	mov.n	a2, a13
 247:	ffe901        	l32r	a0, 1ec <wpa_write_rsn_ie+0x110>
 24a:	0000c0        	callx0	a0
 24d:	146c22        	s32i	a2, a12, 80
 250:	32cc      	bnez.n	a2, 257 <wpa_auth_gen_wpa_ie+0x63>
 252:	f27c      	movi.n	a2, -1
 254:	000386        	j	266 <wpa_auth_gen_wpa_ie+0x72>
 257:	013d      	mov.n	a3, a1
 259:	0d4d      	mov.n	a4, a13
 25b:	ffe501        	l32r	a0, 1f0 <wpa_write_rsn_ie+0x114>
 25e:	0000c0        	callx0	a0
 261:	156cd2        	s32i	a13, a12, 84
 264:	020c      	movi.n	a2, 0
 266:	2121c2        	l32i	a12, a1, 132
 269:	2221d2        	l32i	a13, a1, 136
 26c:	90a032        	movi	a3, 144
 26f:	202102        	l32i	a0, a1, 128
 272:	113a      	add.n	a1, a1, a3
 274:	f00d      	ret.n
	...

00000280 <wpa_add_kde>:
 280:	e0c112        	addi	a1, a1, -32
 283:	5169      	s32i.n	a6, a1, 20
 285:	0109      	s32i.n	a0, a1, 0
 287:	21d9      	s32i.n	a13, a1, 8
 289:	11c9      	s32i.n	a12, a1, 4
 28b:	41f9      	s32i.n	a15, a1, 16
 28d:	31e9      	s32i.n	a14, a1, 12
 28f:	06fd      	mov.n	a15, a6
 291:	05ed      	mov.n	a14, a5
 293:	02cd      	mov.n	a12, a2
 295:	07dd      	mov.n	a13, a7
 297:	032d      	mov.n	a2, a3
 299:	ddaf72        	movi	a7, -35
 29c:	004c72        	s8i	a7, a12, 0
 29f:	054c22        	s8i	a2, a12, 5
 2a2:	043d      	mov.n	a3, a4
 2a4:	0eda      	add.n	a0, a14, a13
 2a6:	f55020        	extui	a5, a2, 16, 16
 2a9:	756820        	extui	a6, a2, 24, 8
 2ac:	024c62        	s8i	a6, a12, 2
 2af:	034c52        	s8i	a5, a12, 3
 2b2:	004b      	addi.n	a0, a0, 4
 2b4:	414820        	srli	a4, a2, 8
 2b7:	044c42        	s8i	a4, a12, 4
 2ba:	014c02        	s8i	a0, a12, 1
 2bd:	0e4d      	mov.n	a4, a14
 2bf:	2c6b      	addi.n	a2, a12, 6
 2c1:	ffed01        	l32r	a0, 278 <wpa_auth_gen_wpa_ie+0x84>
 2c4:	0000c0        	callx0	a0
 2c7:	ccea      	add.n	a12, a12, a14
 2c9:	cc6b      	addi.n	a12, a12, 6
 2cb:	cf8c      	beqz.n	a15, 2db <wpa_add_kde+0x5b>
 2cd:	0f3d      	mov.n	a3, a15
 2cf:	0c2d      	mov.n	a2, a12
 2d1:	0d4d      	mov.n	a4, a13
 2d3:	ffea01        	l32r	a0, 27c <wpa_auth_gen_wpa_ie+0x88>
 2d6:	0000c0        	callx0	a0
 2d9:	ccda      	add.n	a12, a12, a13
 2db:	0108      	l32i.n	a0, a1, 0
 2dd:	21d8      	l32i.n	a13, a1, 8
 2df:	31e8      	l32i.n	a14, a1, 12
 2e1:	0c2d      	mov.n	a2, a12
 2e3:	41f8      	l32i.n	a15, a1, 16
 2e5:	11c8      	l32i.n	a12, a1, 4
 2e7:	20c112        	addi	a1, a1, 32
 2ea:	f00d      	ret.n
	...

00000310 <wpa_validate_wpa_ie>:
 310:	c0c112        	addi	a1, a1, -64
 313:	f1f9      	s32i.n	a15, a1, 60
 315:	b109      	s32i.n	a0, a1, 44
 317:	d1d9      	s32i.n	a13, a1, 52
 319:	c1c9      	s32i.n	a12, a1, 48
 31b:	e1e9      	s32i.n	a14, a1, 56
 31d:	03cd      	mov.n	a12, a3
 31f:	04ed      	mov.n	a14, a4
 321:	02dd      	mov.n	a13, a2
 323:	052d      	mov.n	a2, a5
 325:	dd9c      	beqz.n	a13, 346 <wpa_validate_wpa_ie+0x36>
 327:	b39c      	beqz.n	a3, 346 <wpa_validate_wpa_ie+0x36>
 329:	e49c      	beqz.n	a4, 34b <wpa_validate_wpa_ie+0x3b>
 32b:	c59c      	beqz.n	a5, 34b <wpa_validate_wpa_ie+0x3b>
 32d:	1d58      	l32i.n	a5, a13, 4
 32f:	2f0c      	movi.n	a15, 2
 331:	000462        	l8ui	a6, a4, 0
 334:	130c      	movi.n	a3, 1
 336:	d0c662        	addi	a6, a6, -48
 339:	833f60        	moveqz	a3, a15, a6
 33c:	030d      	mov.n	a0, a3
 33e:	1a8537        	bany	a5, a3, 35c <wpa_validate_wpa_ie+0x4c>
 341:	a20c      	movi.n	a2, 10
 343:	000186        	j	34d <wpa_validate_wpa_ie+0x3d>
 346:	520c      	movi.n	a2, 5
 348:	000046        	j	34d <wpa_validate_wpa_ie+0x3d>
 34b:	120c      	movi.n	a2, 1
 34d:	c1c8      	l32i.n	a12, a1, 48
 34f:	d1d8      	l32i.n	a13, a1, 52
 351:	e1e8      	l32i.n	a14, a1, 56
 353:	f1f8      	l32i.n	a15, a1, 60
 355:	b108      	l32i.n	a0, a1, 44
 357:	40c112        	addi	a1, a1, 64
 35a:	f00d      	ret.n
 35c:	8109      	s32i.n	a0, a1, 32
 35e:	a129      	s32i.n	a2, a1, 40
 360:	242366        	bnei	a3, 2, 388 <wpa_validate_wpa_ie+0x78>
 363:	042d      	mov.n	a2, a4
 365:	a138      	l32i.n	a3, a1, 40
 367:	014d      	mov.n	a4, a1
 369:	ffe001        	l32r	a0, 2ec <wpa_add_kde+0x6c>
 36c:	0000c0        	callx0	a0
 36f:	9129      	s32i.n	a2, a1, 36
 371:	1138      	l32i.n	a3, a1, 4
 373:	220c      	movi.n	a2, 2
 375:	ffde01        	l32r	a0, 2f0 <wpa_add_kde+0x70>
 378:	0000c0        	callx0	a0
 37b:	220c      	movi.n	a2, 2
 37d:	2138      	l32i.n	a3, a1, 8
 37f:	ffdd01        	l32r	a0, 2f4 <wpa_add_kde+0x74>
 382:	0000c0        	callx0	a0
 385:	000846        	j	3aa <wpa_validate_wpa_ie+0x9a>
 388:	042d      	mov.n	a2, a4
 38a:	a138      	l32i.n	a3, a1, 40
 38c:	014d      	mov.n	a4, a1
 38e:	ffda01        	l32r	a0, 2f8 <wpa_add_kde+0x78>
 391:	0000c0        	callx0	a0
 394:	9129      	s32i.n	a2, a1, 36
 396:	1138      	l32i.n	a3, a1, 4
 398:	120c      	movi.n	a2, 1
 39a:	ffd801        	l32r	a0, 2fc <wpa_add_kde+0x7c>
 39d:	0000c0        	callx0	a0
 3a0:	120c      	movi.n	a2, 1
 3a2:	2138      	l32i.n	a3, a1, 8
 3a4:	ffd701        	l32r	a0, 300 <wpa_add_kde+0x80>
 3a7:	0000c0        	callx0	a0
 3aa:	9178      	l32i.n	a7, a1, 36
 3ac:	2198      	l32i.n	a9, a1, 8
 3ae:	f99756        	bnez	a7, 34b <wpa_validate_wpa_ie+0x3b>
 3b1:	4d88      	l32i.n	a8, a13, 16
 3b3:	31b8      	l32i.n	a11, a1, 12
 3b5:	041897        	beq	a8, a9, 3bd <wpa_validate_wpa_ie+0xad>
 3b8:	220c      	movi.n	a2, 2
 3ba:	ffe3c6        	j	34d <wpa_validate_wpa_ie+0x3d>
 3bd:	2da8      	l32i.n	a10, a13, 8
 3bf:	100ab0        	and	a0, a10, a11
 3c2:	048ab7        	bany	a10, a11, 3ca <wpa_validate_wpa_ie+0xba>
 3c5:	420c      	movi.n	a2, 4
 3c7:	ffe086        	j	34d <wpa_validate_wpa_ie+0x3d>
 3ca:	8128      	l32i.n	a2, a1, 32
 3cc:	076007        	bbci	a0, 0, 3d7 <wpa_validate_wpa_ie+0xc7>
 3cf:	100c      	movi.n	a0, 1
 3d1:	656c02        	s32i	a0, a12, 0x194
 3d4:	000086        	j	3da <wpa_validate_wpa_ie+0xca>
 3d7:	656cf2        	s32i	a15, a12, 0x194
 3da:	1108      	l32i.n	a0, a1, 4
 3dc:	482266        	bnei	a2, 2, 428 <wpa_validate_wpa_ie+0x118>
 3df:	9d98      	l32i.n	a9, a13, 36
 3e1:	108900        	and	a8, a9, a0
 3e4:	590907        	bnone	a9, a0, 441 <wpa_validate_wpa_ie+0x131>
 3e7:	800c      	movi.n	a0, 8
 3e9:	06e837        	bbsi	a8, 3, 3f3 <wpa_validate_wpa_ie+0xe3>
 3ec:	004c      	movi.n	a0, 64
 3ee:	01e867        	bbsi	a8, 6, 3f3 <wpa_validate_wpa_ie+0xe3>
 3f1:	0f0d      	mov.n	a0, a15
 3f3:	646c02        	s32i	a0, a12, 0x190
 3f6:	000e32        	l8ui	a3, a14, 0
 3f9:	043c      	movi.n	a4, 48
 3fb:	011347        	beq	a3, a4, 400 <wpa_validate_wpa_ie+0xf0>
 3fe:	1f0c      	movi.n	a15, 1
 400:	612c22        	l32i	a2, a12, 0x184
 403:	636cf2        	s32i	a15, a12, 0x18c
 406:	628c      	beqz.n	a2, 410 <wpa_validate_wpa_ie+0x100>
 408:	a168      	l32i.n	a6, a1, 40
 40a:	622c52        	l32i	a5, a12, 0x188
 40d:	1cb567        	bgeu	a5, a6, 42d <wpa_validate_wpa_ie+0x11d>
 410:	ffbd01        	l32r	a0, 304 <wpa_add_kde+0x84>
 413:	0000c0        	callx0	a0
 416:	a128      	l32i.n	a2, a1, 40
 418:	ffbc01        	l32r	a0, 308 <wpa_add_kde+0x88>
 41b:	0000c0        	callx0	a0
 41e:	616c22        	s32i	a2, a12, 0x184
 421:	82cc      	bnez.n	a2, 42d <wpa_validate_wpa_ie+0x11d>
 423:	620c      	movi.n	a2, 6
 425:	ffc906        	j	34d <wpa_validate_wpa_ie+0x3d>
 428:	3d98      	l32i.n	a9, a13, 12
 42a:	ffecc6        	j	3e1 <wpa_validate_wpa_ie+0xd1>
 42d:	0e3d      	mov.n	a3, a14
 42f:	a148      	l32i.n	a4, a1, 40
 431:	ffb601        	l32r	a0, 30c <wpa_add_kde+0x8c>
 434:	0000c0        	callx0	a0
 437:	020c      	movi.n	a2, 0
 439:	a178      	l32i.n	a7, a1, 40
 43b:	626c72        	s32i	a7, a12, 0x188
 43e:	ffc2c6        	j	34d <wpa_validate_wpa_ie+0x3d>
 441:	320c      	movi.n	a2, 3
 443:	ffc186        	j	34d <wpa_validate_wpa_ie+0x3d>
 446:	010000        	slli	a0, a0, 32
 449:	0050f2        	s16i	a15, a0, 0
 44c:	0fac04        	excw
 44f:	ac0100        	excw
 452:	0f          	.byte 0xf
 453:	ac0300        	excw
 456:	0f          	.byte 0xf
 457:	027200        	excw
 45a:	025201        	l32r	a0, fffc0da4 <wpa_auth_uses_mfp+0xfffc07e0>
 45d:	27cc05        	call0	28120 <wpa_auth_uses_mfp+0x27b5c>
 460:	120c      	movi.n	a2, 1
 462:	f00d      	ret.n
 464:	3767b6        	bltui	a7, 6, 49f <wpa_validate_wpa_ie+0x18f>
 467:	020282        	l8ui	a8, a2, 2
 46a:	030292        	l8ui	a9, a2, 3
 46d:	040262        	l8ui	a6, a2, 4
 470:	119900        	slli	a9, a9, 16
 473:	116680        	slli	a6, a6, 8
 476:	018880        	slli	a8, a8, 24
 479:	205560        	or	a5, a5, a6
 47c:	fff361        	l32r	a6, 448 <wpa_validate_wpa_ie+0x138>
 47f:	208890        	or	a8, a8, a9
 482:	205580        	or	a5, a5, a8
 485:	169567        	bne	a5, a6, 49f <wpa_validate_wpa_ie+0x18f>
 488:	060282        	l8ui	a8, a2, 6
 48b:	101866        	bnei	a8, 1, 49f <wpa_validate_wpa_ie+0x18f>
 48e:	070292        	l8ui	a9, a2, 7
 491:	a9cc      	bnez.n	a9, 49f <wpa_validate_wpa_ie+0x18f>
 493:	0429      	s32i.n	a2, a4, 0
 495:	0102a2        	l8ui	a10, a2, 1
 498:	aa2b      	addi.n	a10, a10, 2
 49a:	14a9      	s32i.n	a10, a4, 4
 49c:	001fc6        	j	51f <wpa_validate_wpa_ie+0x20f>
 49f:	b25b      	addi.n	a11, a2, 5
 4a1:	2fbb37        	bgeu	a11, a3, 4d4 <wpa_validate_wpa_ie+0x1c4>
 4a4:	331c      	movi.n	a3, 19
 4a6:	2ab377        	bgeu	a3, a7, 4d4 <wpa_validate_wpa_ie+0x1c4>
 4a9:	050252        	l8ui	a5, a2, 5
 4ac:	020282        	l8ui	a8, a2, 2
 4af:	030292        	l8ui	a9, a2, 3
 4b2:	040262        	l8ui	a6, a2, 4
 4b5:	119900        	slli	a9, a9, 16
 4b8:	116680        	slli	a6, a6, 8
 4bb:	018880        	slli	a8, a8, 24
 4be:	205560        	or	a5, a5, a6
 4c1:	ffe261        	l32r	a6, 44c <wpa_validate_wpa_ie+0x13c>
 4c4:	208890        	or	a8, a8, a9
 4c7:	205580        	or	a5, a5, a8
 4ca:	069567        	bne	a5, a6, 4d4 <wpa_validate_wpa_ie+0x1c4>
 4cd:	726b      	addi.n	a7, a2, 6
 4cf:	4479      	s32i.n	a7, a4, 16
 4d1:	001286        	j	51f <wpa_validate_wpa_ie+0x20f>
 4d4:	4777b6        	bltui	a7, 7, 51f <wpa_validate_wpa_ie+0x20f>
 4d7:	ffde81        	l32r	a8, 450 <wpa_validate_wpa_ie+0x140>
 4da:	030262        	l8ui	a6, a2, 3
 4dd:	040252        	l8ui	a5, a2, 4
 4e0:	050232        	l8ui	a3, a2, 5
 4e3:	115580        	slli	a5, a5, 8
 4e6:	203350        	or	a3, a3, a5
 4e9:	020252        	l8ui	a5, a2, 2
 4ec:	116600        	slli	a6, a6, 16
 4ef:	015580        	slli	a5, a5, 24
 4f2:	205560        	or	a5, a5, a6
 4f5:	203350        	or	a3, a3, a5
 4f8:	0e9387        	bne	a3, a8, 50a <wpa_validate_wpa_ie+0x1fa>
 4fb:	726b      	addi.n	a7, a2, 6
 4fd:	5479      	s32i.n	a7, a4, 20
 4ff:	010262        	l8ui	a6, a2, 1
 502:	fcc662        	addi	a6, a6, -4
 505:	6469      	s32i.n	a6, a4, 24
 507:	000506        	j	51f <wpa_validate_wpa_ie+0x20f>
 50a:	1177b6        	bltui	a7, 7, 51f <wpa_validate_wpa_ie+0x20f>
 50d:	ffd181        	l32r	a8, 454 <wpa_validate_wpa_ie+0x144>
 510:	0b9387        	bne	a3, a8, 51f <wpa_validate_wpa_ie+0x20f>
 513:	a26b      	addi.n	a10, a2, 6
 515:	74a9      	s32i.n	a10, a4, 28
 517:	010292        	l8ui	a9, a2, 1
 51a:	fcc992        	addi	a9, a9, -4
 51d:	8499      	s32i.n	a9, a4, 32
 51f:	020c      	movi.n	a2, 0
 521:	f00d      	ret.n
 523:	000000        	ill
	...

00000528 <wpa_parse_kde_ies>:
 528:	e0c112        	addi	a1, a1, -32
 52b:	61f9      	s32i.n	a15, a1, 24
 52d:	2109      	s32i.n	a0, a1, 8
 52f:	51e9      	s32i.n	a14, a1, 20
 531:	41d9      	s32i.n	a13, a1, 16
 533:	31c9      	s32i.n	a12, a1, 12
 535:	04dd      	mov.n	a13, a4
 537:	02cd      	mov.n	a12, a2
 539:	03ed      	mov.n	a14, a3
 53b:	042d      	mov.n	a2, a4
 53d:	030c      	movi.n	a3, 0
 53f:	442c      	movi.n	a4, 36
 541:	fff801        	l32r	a0, 524 <wpa_validate_wpa_ie+0x214>
 544:	0000c0        	callx0	a0
 547:	11d9      	s32i.n	a13, a1, 4
 549:	702ea6        	blti	a14, 2, 5bd <wpa_parse_kde_ies+0x95>
 54c:	0f3c      	movi.n	a15, 48
 54e:	020c      	movi.n	a2, 0
 550:	dcea      	add.n	a13, a12, a14
 552:	dda0e2        	movi	a14, 221
 555:	0d0b      	addi.n	a0, a13, -1
 557:	0109      	s32i.n	a0, a1, 0
 559:	000c02        	l8ui	a0, a12, 0
 55c:	010c32        	l8ui	a3, a12, 1
 55f:	0c90e7        	bne	a0, a14, 56f <wpa_parse_kde_ies+0x47>
 562:	0138      	l32i.n	a3, a1, 0
 564:	4613c7        	beq	a3, a12, 5ae <wpa_parse_kde_ies+0x86>
 567:	010c32        	l8ui	a3, a12, 1
 56a:	13cc      	bnez.n	a3, 56f <wpa_parse_kde_ies+0x47>
 56c:	000f86        	j	5ae <wpa_parse_kde_ies+0x86>
 56f:	33ca      	add.n	a3, a3, a12
 571:	332b      	addi.n	a3, a3, 2
 573:	353d37        	bltu	a13, a3, 5ac <wpa_parse_kde_ies+0x84>
 576:	1b90f7        	bne	a0, a15, 595 <wpa_parse_kde_ies+0x6d>
 579:	1158      	l32i.n	a5, a1, 4
 57b:	25c9      	s32i.n	a12, a5, 8
 57d:	010c42        	l8ui	a4, a12, 1
 580:	442b      	addi.n	a4, a4, 2
 582:	3549      	s32i.n	a4, a5, 12
 584:	010c32        	l8ui	a3, a12, 1
 587:	33ca      	add.n	a3, a3, a12
 589:	332b      	addi.n	a3, a3, 2
 58b:	03cd      	mov.n	a12, a3
 58d:	431b      	addi.n	a4, a3, 1
 58f:	c634d7        	bltu	a4, a13, 559 <wpa_parse_kde_ies+0x31>
 592:	000606        	j	5ae <wpa_parse_kde_ies+0x86>
 595:	f290e7        	bne	a0, a14, 58b <wpa_parse_kde_ies+0x63>
 598:	0c2d      	mov.n	a2, a12
 59a:	0d3d      	mov.n	a3, a13
 59c:	1148      	l32i.n	a4, a1, 4
 59e:	ffeb85        	call0	458 <wpa_validate_wpa_ie+0x148>
 5a1:	009296        	bltz	a2, 5ae <wpa_parse_kde_ies+0x86>
 5a4:	dc12a6        	blti	a2, 1, 584 <wpa_parse_kde_ies+0x5c>
 5a7:	020c      	movi.n	a2, 0
 5a9:	000046        	j	5ae <wpa_parse_kde_ies+0x86>
 5ac:	f27c      	movi.n	a2, -1
 5ae:	31c8      	l32i.n	a12, a1, 12
 5b0:	41d8      	l32i.n	a13, a1, 16
 5b2:	51e8      	l32i.n	a14, a1, 20
 5b4:	61f8      	l32i.n	a15, a1, 24
 5b6:	2108      	l32i.n	a0, a1, 8
 5b8:	20c112        	addi	a1, a1, 32
 5bb:	f00d      	ret.n
 5bd:	020c      	movi.n	a2, 0
 5bf:	fffac6        	j	5ae <wpa_parse_kde_ies+0x86>
	...

000005c4 <wpa_auth_uses_mfp>:
 5c4:	928c      	beqz.n	a2, 5d1 <wpa_auth_uses_mfp+0xd>
 5c6:	01d222        	addmi	a2, a2, 0x100
 5c9:	740222        	l8ui	a2, a2, 116
 5cc:	042420        	extui	a2, a2, 4, 1
 5cf:	f00d      	ret.n
 5d1:	020c      	movi.n	a2, 0
 5d3:	f00d      	ret.n
